Certificate:
    Data:
        Version: 3 (0x2)
        Serial Number: 1 (0x1)
        Signature Algorithm: sha256WithRSAEncryption
        Issuer: CN=devcert
        Validity
            Not Before: May  3 05:24:58 2020 GMT
            Not After : Aug  6 05:24:58 2022 GMT
        Subject: CN=localhost
        Subject Public Key Info:
            Public Key Algorithm: rsaEncryption
                RSA Public-Key: (2048 bit)
                Modulus:
                    00:eb:65:00:8a:f1:8a:ca:64:94:a3:76:7c:e9:6b:
                    42:42:f2:05:02:9d:5a:f9:90:78:f7:71:77:6e:6e:
                    2b:9f:55:82:b4:b1:23:9d:0d:64:ae:38:27:3b:2a:
                    b7:01:e6:10:ec:79:34:d4:f0:95:2b:cf:3e:62:09:
                    64:7a:51:75:3b:33:42:a3:91:a6:e5:fe:d2:a0:94:
                    4b:f6:46:2a:ac:9c:52:48:9c:20:65:e8:02:15:ac:
                    f5:5d:e5:82:45:9a:8a:61:aa:a3:c0:9f:b7:ea:54:
                    27:15:69:70:90:a4:5a:69:ef:21:f1:a9:ba:a8:eb:
                    95:06:c6:a8:cf:d1:e1:29:ca:41:5f:36:71:8b:81:
                    c9:e0:88:70:f8:66:e8:bd:ad:c3:71:a6:f2:72:bb:
                    ef:56:c4:21:a4:c0:98:04:5b:1b:32:f4:b2:5f:74:
                    b2:06:b6:d2:0f:10:ec:dc:2b:00:c3:05:86:75:ae:
                    d5:33:9a:ab:59:fe:97:c2:84:12:94:4e:ee:68:fb:
                    3a:0c:b5:a2:f7:4a:ad:33:f4:5d:eb:40:6d:24:0f:
                    33:9d:2a:b0:3e:d1:33:3a:ed:b3:aa:67:51:5d:d2:
                    22:b1:dc:21:e2:a2:42:24:f2:f0:e4:7a:31:f7:f1:
                    07:01:66:e7:b0:45:3a:52:dc:a4:58:68:8f:9d:e4:
                    5a:b7
                Exponent: 65537 (0x10001)
        X509v3 extensions:
            X509v3 Basic Constraints: critical
                CA:FALSE
            X509v3 Subject Key Identifier: 
                77:E7:5F:8E:2E:87:7D:42:1D:4A:F2:D4:0C:12:B1:33:82:F1:3A:5F
            X509v3 Authority Key Identifier: 
                keyid:F3:6B:2B:21:4F:23:F4:4F:1A:67:AE:25:F5:D5:0F:95:7A:14:4C:C3
                DirName:/CN=devcert
                serial:59:C4:F4:5D:89:B4:E4:7A:54:33:6D:9A:63:95:7A:1F:CF:3A:FE:61

            X509v3 Key Usage: critical
                Digital Signature, Key Encipherment
            X509v3 Extended Key Usage: 
                TLS Web Server Authentication
            X509v3 Subject Alternative Name: 
                DNS:localhost, DNS:*.localhost
    Signature Algorithm: sha256WithRSAEncryption
         c1:5e:3c:40:f2:f0:15:09:d1:ce:cc:06:cc:79:cb:a7:b1:28:
         ae:07:c5:0b:3d:70:ea:6d:37:97:8e:aa:8a:95:f4:ef:7a:7d:
         c8:4a:3d:1d:c3:20:f9:26:9c:e8:ec:c3:d4:e2:2d:03:79:3d:
         3e:e8:b7:a0:4f:ba:f6:d5:57:89:22:cd:28:88:bc:a5:90:5f:
         64:f1:2a:22:c0:24:96:81:fa:6c:aa:39:49:6e:df:73:73:d9:
         da:68:7f:18:73:2c:92:a3:e4:1c:96:38:83:91:21:22:de:8c:
         e2:d5:c4:4a:0f:e2:2e:c8:5d:41:fd:2d:3f:dc:06:a2:43:4d:
         2a:a6:79:f7:e7:89:3b:c6:85:ee:08:65:55:e8:2a:e4:57:a6:
         7f:57:fd:46:18:33:2c:97:09:bc:21:ae:ce:11:b7:89:2f:a0:
         2b:de:40:c5:c7:09:c9:35:e9:00:31:f9:37:07:40:32:52:93:
         51:38:b5:f0:22:1a:ed:bf:83:8d:3a:31:f9:7e:78:86:07:c7:
         e1:1d:f7:68:12:b7:c1:2d:e9:3c:54:62:e7:8c:e2:d6:85:7e:
         27:d0:ec:8c:33:c8:ed:df:00:37:75:82:4d:18:63:63:fc:9e:
         b6:11:b9:49:15:ee:2a:67:2e:31:d8:8a:db:4b:2c:4e:8b:12:
         75:8f:db:92
-----BEGIN CERTIFICATE-----
MIIDaTCCAlGgAwIBAgIBATANBgkqhkiG9w0BAQsFADASMRAwDgYDVQQDDAdkZXZj
ZXJ0MB4XDTIwMDUwMzA1MjQ1OFoXDTIyMDgwNjA1MjQ1OFowFDESMBAGA1UEAwwJ
bG9jYWxob3N0MIIBIjANBgkqhkiG9w0BAQEFAAOCAQ8AMIIBCgKCAQEA62UAivGK
ymSUo3Z86WtCQvIFAp1a+ZB493F3bm4rn1WCtLEjnQ1krjgnOyq3AeYQ7Hk01PCV
K88+YglkelF1OzNCo5Gm5f7SoJRL9kYqrJxSSJwgZegCFaz1XeWCRZqKYaqjwJ+3
6lQnFWlwkKRaae8h8am6qOuVBsaoz9HhKcpBXzZxi4HJ4Ihw+Gbova3Dcabycrvv
VsQhpMCYBFsbMvSyX3SyBrbSDxDs3CsAwwWGda7VM5qrWf6XwoQSlE7uaPs6DLWi
90qtM/Rd60BtJA8znSqwPtEzOu2zqmdRXdIisdwh4qJCJPLw5Hox9/EHAWbnsEU6
UtykWGiPneRatwIDAQABo4HHMIHEMAwGA1UdEwEB/wQCMAAwHQYDVR0OBBYEFHfn
X44uh31CHUry1AwSsTOC8TpfME0GA1UdIwRGMESAFPNrKyFPI/RPGmeuJfXVD5V6
FEzDoRakFDASMRAwDgYDVQQDDAdkZXZjZXJ0ghRZxPRdibTkelQzbZpjlXofzzr+
YTAOBgNVHQ8BAf8EBAMCBaAwEwYDVR0lBAwwCgYIKwYBBQUHAwEwIQYDVR0RBBow
GIIJbG9jYWxob3N0ggsqLmxvY2FsaG9zdDANBgkqhkiG9w0BAQsFAAOCAQEAwV48
QPLwFQnRzswGzHnLp7EorgfFCz1w6m03l46qipX073p9yEo9HcMg+Sac6OzD1OIt
A3k9Pui3oE+69tVXiSLNKIi8pZBfZPEqIsAkloH6bKo5SW7fc3PZ2mh/GHMskqPk
HJY4g5EhIt6M4tXESg/iLshdQf0tP9wGokNNKqZ59+eJO8aF7ghlVegq5Femf1f9
RhgzLJcJvCGuzhG3iS+gK95AxccJyTXpADH5NwdAMlKTUTi18CIa7b+DjTox+X54
hgfH4R33aBK3wS3pPFRi54zi1oV+J9DsjDPI7d8AN3WCTRhjY/yethG5SRXuKmcu
MdiK20ssTosSdY/bkg==
-----END CERTIFICATE-----
